; Function Attrs: nounwind uwtable
define dso_local void @heap_finish_speculative(ptr noundef %0, ptr noundef readonly captures(none) %1) local_unnamed_addr #2 {
  %3 = alloca %struct.xl_heap_confirm, align 2
  %.val25 = load i16, ptr %1, align 2
  %4 = getelementptr i8, ptr %1, i64 2
  %.val26 = load i16, ptr %4, align 2
  %5 = zext i16 %.val25 to i32
  %6 = shl nuw i32 %5, 16
  %7 = zext i16 %.val26 to i32
  %8 = or disjoint i32 %6, %7
  %9 = tail call i32 @ReadBuffer(ptr noundef %0, i32 noundef %8) #13
  tail call void @LockBuffer(i32 noundef %9, i32 noundef 2) #13
  %10 = icmp slt i32 %9, 0
  br i1 %10, label %11, label %17

11:                                               ; preds = %2
  %12 = load ptr, ptr @LocalBufferBlockPointers, align 8
  %13 = xor i32 %9, -1
  %14 = zext nneg i32 %13 to i64
  %15 = getelementptr inbounds nuw ptr, ptr %12, i64 %14
  %16 = load ptr, ptr %15, align 8
  br label %BufferGetPage.exit

17:                                               ; preds = %2
  %18 = load ptr, ptr @BufferBlocks, align 8
  %19 = add nsw i32 %9, -1
  %20 = sext i32 %19 to i64
  %21 = shl nsw i64 %20, 13
  %22 = getelementptr inbounds nuw i8, ptr %18, i64 %21
  br label %BufferGetPage.exit

BufferGetPage.exit:                               ; preds = %11, %17
  %.0.i.i = phi ptr [ %16, %11 ], [ %22, %17 ]
  %23 = getelementptr i8, ptr %1, i64 4
  %.val28 = load i16, ptr %23, align 2
  %24 = getelementptr i8, ptr %.0.i.i, i64 12
  %.val24 = load i16, ptr %24, align 4
  %25 = icmp ult i16 %.val24, 25
  %26 = zext i16 %.val24 to i32
  %27 = add nuw nsw i32 %26, 262120
  %28 = lshr i32 %27, 2
  %29 = trunc i32 %28 to i16
  %.0.i = select i1 %25, i16 0, i16 %29
  %.not = icmp ult i16 %.0.i, %.val28
  br i1 %.not, label %.thread, label %30

30:                                               ; preds = %BufferGetPage.exit
  %31 = getelementptr inbounds nuw i8, ptr %.0.i.i, i64 24
  %32 = zext i16 %.val28 to i64
  %33 = add nsw i64 %32, -1
  %34 = getelementptr inbounds [0 x %struct.ItemIdData], ptr %31, i64 0, i64 %33
  %35 = load i32, ptr %34, align 4
  %36 = and i32 %35, 98304
  %37 = icmp eq i32 %36, 32768
  br i1 %37, label %40, label %.thread

.thread:                                          ; preds = %BufferGetPage.exit, %30
  %38 = tail call zeroext i1 @errstart_cold(i32 noundef 21, ptr noundef null) #14
  tail call void @llvm.assume(i1 %38)
  %39 = tail call i32 (ptr, ...) @errmsg_internal(ptr noundef nonnull @.str.15) #13
  tail call void @errfinish(ptr noundef nonnull @.str.1, i32 noundef 6021, ptr noundef nonnull @__func__.heap_finish_speculative) #13
  unreachable

40:                                               ; preds = %30
  %41 = and i32 %35, 32767
  %42 = zext nneg i32 %41 to i64
  %43 = getelementptr inbounds nuw i8, ptr %.0.i.i, i64 %42
  %44 = load volatile i32, ptr @CritSectionCount, align 4
  %45 = add i32 %44, 1
  store volatile i32 %45, ptr @CritSectionCount, align 4
  tail call void @MarkBufferDirty(i32 noundef %9) #13
  %46 = getelementptr inbounds nuw i8, ptr %43, i64 12
  tail call void @llvm.memcpy.p0.p0.i64(ptr noundef nonnull align 4 dereferenceable(6) %46, ptr noundef nonnull align 2 dereferenceable(6) %1, i64 6, i1 false)
  %47 = getelementptr inbounds nuw i8, ptr %0, i64 56
  %48 = load ptr, ptr %47, align 8
  %49 = getelementptr inbounds nuw i8, ptr %48, i64 114
  %50 = load i8, ptr %49, align 2
  %51 = icmp eq i8 %50, 112
  br i1 %51, label %52, label %69

52:                                               ; preds = %40
  %53 = load i32, ptr @wal_level, align 4
  %54 = icmp sgt i32 %53, 0
  br i1 %54, label %63, label %55

55:                                               ; preds = %52
  %56 = getelementptr inbounds nuw i8, ptr %0, i64 40
  %57 = load i32, ptr %56, align 8
  %58 = icmp eq i32 %57, 0
  br i1 %58, label %59, label %69

59:                                               ; preds = %55
  %60 = getelementptr inbounds nuw i8, ptr %0, i64 48
  %61 = load i32, ptr %60, align 8
  %62 = icmp eq i32 %61, 0
  br i1 %62, label %63, label %69

63:                                               ; preds = %59, %52
  call void @llvm.lifetime.start.p0(i64 2, ptr nonnull %3) #13
  %.val27 = load i16, ptr %23, align 2
  store i16 %.val27, ptr %3, align 2
  tail call void @XLogBeginInsert() #13
  tail call void @XLogSetRecordFlags(i8 noundef zeroext 1) #13
  call void @XLogRegisterData(ptr noundef nonnull %3, i32 noundef 2) #13
  call void @XLogRegisterBuffer(i8 noundef zeroext 0, i32 noundef %9, i8 noundef zeroext 8) #13
  %64 = call i64 @XLogInsert(i8 noundef zeroext 10, i8 noundef zeroext 80) #13
  %65 = lshr i64 %64, 32
  %66 = trunc nuw i64 %65 to i32
  store i32 %66, ptr %.0.i.i, align 4
  %67 = trunc i64 %64 to i32
  %68 = getelementptr inbounds nuw i8, ptr %.0.i.i, i64 4
  store i32 %67, ptr %68, align 4
  call void @llvm.lifetime.end.p0(i64 2, ptr nonnull %3) #13
  br label %69

69:                                               ; preds = %40, %55, %59, %63
  %70 = load volatile i32, ptr @CritSectionCount, align 4
  %71 = add i32 %70, -1
  store volatile i32 %71, ptr @CritSectionCount, align 4
  call void @UnlockReleaseBuffer(i32 noundef %9) #13
  ret void
}